; Function Attrs: mustprogress uwtable
define void @_ZN4base31SharedPersistentMemoryAllocatorC2ESt10unique_ptrINS_12SharedMemoryESt14default_deleteIS2_EEmNS_16BasicStringPieceINSt7__cxx1112basic_stringIcSt11char_traitsIcESaIcEEEEEb(ptr noundef nonnull align 8 captures(none) dereferenceable(56) initializes((0, 26), (32, 48)) %0, ptr noundef captures(none) %1, i64 noundef %2, ptr %3, i64 %4, i1 noundef zeroext %5) unnamed_addr #3 align 2 {
  %7 = alloca %"class.base::BasicStringPiece", align 8
  %8 = load ptr, ptr %1, align 8, !tbaa !70
  %9 = getelementptr inbounds nuw i8, ptr %8, i64 16
  %10 = load ptr, ptr %9, align 8, !tbaa !72
  %11 = getelementptr inbounds nuw i8, ptr %8, i64 8
  %12 = load i64, ptr %11, align 8, !tbaa !74
  store ptr %3, ptr %7, align 8, !tbaa !69
  %.sroa.2.0..sroa_idx = getelementptr inbounds nuw i8, ptr %7, i64 8
  store i64 %4, ptr %.sroa.2.0..sroa_idx, align 8, !tbaa !54
  tail call void @_ZN4base25PersistentMemoryAllocatorC2EPvmmmNS_16BasicStringPieceINSt7__cxx1112basic_stringIcSt11char_traitsIcESaIcEEEEEb(ptr noundef nonnull align 8 dereferenceable(48) %0, ptr noundef %10, i64 noundef %12, i64 noundef 0, i64 noundef %2, ptr noundef nonnull byval(%"class.base::BasicStringPiece") align 8 %7, i1 noundef zeroext %5)
  store ptr getelementptr inbounds nuw inrange(-16, 16) (i8, ptr @_ZTVN4base31SharedPersistentMemoryAllocatorE, i64 16), ptr %0, align 8, !tbaa !30
  %13 = getelementptr inbounds nuw i8, ptr %0, i64 48
  %14 = load i64, ptr %1, align 8, !tbaa !70
  store i64 %14, ptr %13, align 8, !tbaa !70
  store ptr null, ptr %1, align 8, !tbaa !70
  ret void
}